; ModuleID = '38/146.c'
source_filename = "38/146.c"
target datalayout = "e-m:e-p270:32:32-p271:32:32-p272:64:64-i64:64-f80:128-n8:16:32:64-S128"
target triple = "x86_64-pc-linux-gnu"

@a = common dso_local global double 0.000000e+00, align 8
@S = common dso_local global double 0.000000e+00, align 8
@.str = private unnamed_addr constant [4 x i8] c"%lf\00", align 1
@x = common dso_local global [1001 x double] zeroinitializer, align 16
@.str.1 = private unnamed_addr constant [3 x i8] c"%d\00", align 1
@.str.2 = private unnamed_addr constant [6 x i8] c"%.5f\0A\00", align 1

; Function Attrs: noinline nounwind uwtable
define dso_local i32 @f(i32 %0) #0 {
  %2 = alloca i32, align 4
  %3 = alloca i32, align 4
  %4 = alloca i32, align 4
  store i32 %0, i32* %3, align 4
  store double 0.000000e+00, double* @a, align 8
  store double 0.000000e+00, double* @S, align 8
  store i32 0, i32* %4, align 4
  br label %5

5:                                                ; preds = %20, %1
  %6 = load i32, i32* %4, align 4
  %7 = load i32, i32* %3, align 4
  %8 = icmp slt i32 %6, %7
  br i1 %8, label %9, label %23

9:                                                ; preds = %5
  %10 = load i32, i32* %4, align 4
  %11 = sext i32 %10 to i64
  %12 = getelementptr inbounds double, double* getelementptr inbounds ([1001 x double], [1001 x double]* @x, i64 0, i64 0), i64 %11
  %13 = call i32 (i8*, ...) @__isoc99_scanf(i8* getelementptr inbounds ([4 x i8], [4 x i8]* @.str, i64 0, i64 0), double* %12)
  %14 = load i32, i32* %4, align 4
  %15 = sext i32 %14 to i64
  %16 = getelementptr inbounds double, double* getelementptr inbounds ([1001 x double], [1001 x double]* @x, i64 0, i64 0), i64 %15
  %17 = load double, double* %16, align 8
  %18 = load double, double* @a, align 8
  %19 = fadd double %18, %17
  store double %19, double* @a, align 8
  br label %20

20:                                               ; preds = %9
  %21 = load i32, i32* %4, align 4
  %22 = add nsw i32 %21, 1
  store i32 %22, i32* %4, align 4
  br label %5

23:                                               ; preds = %5
  store i32 0, i32* %4, align 4
  br label %24

24:                                               ; preds = %41, %23
  %25 = load i32, i32* %4, align 4
  %26 = load i32, i32* %3, align 4
  %27 = icmp slt i32 %25, %26
  br i1 %27, label %28, label %44

28:                                               ; preds = %24
  %29 = load i32, i32* %4, align 4
  %30 = sext i32 %29 to i64
  %31 = getelementptr inbounds double, double* getelementptr inbounds ([1001 x double], [1001 x double]* @x, i64 0, i64 0), i64 %30
  %32 = load double, double* %31, align 8
  %33 = load double, double* @a, align 8
  %34 = load i32, i32* %3, align 4
  %35 = sitofp i32 %34 to double
  %36 = fdiv double %33, %35
  %37 = fsub double %32, %36
  %38 = call double @pow(double %37, double 2.000000e+00) #3
  %39 = load double, double* @S, align 8
  %40 = fadd double %39, %38
  store double %40, double* @S, align 8
  br label %41

41:                                               ; preds = %28
  %42 = load i32, i32* %4, align 4
  %43 = add nsw i32 %42, 1
  store i32 %43, i32* %4, align 4
  br label %24

44:                                               ; preds = %24
  %45 = load double, double* @S, align 8
  %46 = load i32, i32* %3, align 4
  %47 = sitofp i32 %46 to double
  %48 = fdiv double %45, %47
  store double %48, double* @S, align 8
  %49 = load double, double* @S, align 8
  %50 = call double @sqrt(double %49) #3
  store double %50, double* @S, align 8
  %51 = load i32, i32* %2, align 4
  ret i32 %51
}

declare dso_local i32 @__isoc99_scanf(i8*, ...) #1

; Function Attrs: nounwind
declare dso_local double @pow(double, double) #2

; Function Attrs: nounwind
declare dso_local double @sqrt(double) #2

; Function Attrs: noinline nounwind uwtable
define dso_local i32 @main() #0 {
  %1 = alloca i32, align 4
  %2 = alloca i32, align 4
  %3 = alloca i32, align 4
  %4 = alloca i32, align 4
  store i32 0, i32* %1, align 4
  %5 = call i32 (i8*, ...) @__isoc99_scanf(i8* getelementptr inbounds ([3 x i8], [3 x i8]* @.str.1, i64 0, i64 0), i32* %3)
  store i32 0, i32* %2, align 4
  br label %6

6:                                                ; preds = %16, %0
  %7 = load i32, i32* %2, align 4
  %8 = load i32, i32* %3, align 4
  %9 = icmp slt i32 %7, %8
  br i1 %9, label %10, label %19

10:                                               ; preds = %6
  %11 = call i32 (i8*, ...) @__isoc99_scanf(i8* getelementptr inbounds ([3 x i8], [3 x i8]* @.str.1, i64 0, i64 0), i32* %4)
  %12 = load i32, i32* %4, align 4
  %13 = call i32 @f(i32 %12)
  %14 = load double, double* @S, align 8
  %15 = call i32 (i8*, ...) @printf(i8* getelementptr inbounds ([6 x i8], [6 x i8]* @.str.2, i64 0, i64 0), double %14)
  br label %16

16:                                               ; preds = %10
  %17 = load i32, i32* %2, align 4
  %18 = add nsw i32 %17, 1
  store i32 %18, i32* %2, align 4
  br label %6

19:                                               ; preds = %6
  ret i32 0
}

declare dso_local i32 @printf(i8*, ...) #1


!llvm.module.flags = !{!0}
!llvm.ident = !{!1}

!0 = !{i32 1, !"wchar_size", i32 4}
!1 = !{!"clang version 10.0.0-4ubuntu1 "}
